#include <math.h>
#include <stdio.h>
#include <stdlib.h>
#include <string.h>

int f(int a)
{
	int d[20]={1,1};
	int i;
	for(i=2;i<a;i++)
		d[i]=d[i-1]+d[i-2];
	return(d[a-1]);
}

int main()
{
	int a[20],i,z[20],n;
	scanf("%d",&n);
	for(i=0;i<n;i++)
	{
		scanf("%d",&a[i]);
	}
	for(i=0;i<n;i++)
	{
		z[i]=f(a[i]);
		printf("%d\n",z[i]);
	}
	return 0;
}